target datalayout = "e-m:e-p270:32:32-p271:32:32-p272:64:64-i64:64-i128:128-f80:128-n8:16:32:64-S128"
target triple = "x86_64-pc-linux-gnu"

@.str.8 = private unnamed_addr constant [10 x i8] c"yosys.exe\00", align 1
@.str.9 = private unnamed_addr constant [6 x i8] c"yosys\00", align 1
@.str.10 = private unnamed_addr constant [9 x i8] c"yosyswin\00", align 1
@.str.11 = private unnamed_addr constant [10 x i8] c"yosysunix\00", align 1
@stdout = external global ptr, align 8
@.str.12 = private unnamed_addr constant [22 x i8] c"Cannot execute \22%s\22.\0A\00", align 1
@.str.13 = private unnamed_addr constant [2 x i8] c"r\00", align 1
@.str.14 = private unnamed_addr constant [37 x i8] c"Cannot open intermediate file \22%s\22.\0A\00", align 1
@.str.15 = private unnamed_addr constant [13 x i8] c"_temp_.rtlil\00", align 1
@.str.16 = private unnamed_addr constant [4 x i8] c".sv\00", align 1
@.str.17 = private unnamed_addr constant [5 x i8] c".rtl\00", align 1
@.str.18 = private unnamed_addr constant [72 x i8] c"%s -qp \22read_verilog %s%s %s%s; hierarchy %s%s; %sproc; write_rtlil %s\22\00", align 1
@.str.19 = private unnamed_addr constant [3 x i8] c"-D\00", align 1
@.str.20 = private unnamed_addr constant [1 x i8] zeroinitializer, align 1
@.str.21 = private unnamed_addr constant [5 x i8] c"-sv \00", align 1
@.str.22 = private unnamed_addr constant [6 x i8] c"-top \00", align 1
@.str.23 = private unnamed_addr constant [10 x i8] c"flatten; \00", align 1
@.str.24 = private unnamed_addr constant [4 x i8] c"%s\0A\00", align 1
@.str.25 = private unnamed_addr constant [35 x i8] c"Dumped the design into file \22%s\22.\0A\00", align 1

; Function Attrs: nounwind uwtable
define i32 @Wln_ConvertToRtl(ptr noundef %0, ptr noundef %1) #0 {
  %3 = alloca i32, align 4
  %4 = alloca ptr, align 8
  %5 = alloca ptr, align 8
  %6 = alloca ptr, align 8
  %7 = alloca i32, align 4
  store ptr %0, ptr %4, align 8, !tbaa !3
  store ptr %1, ptr %5, align 8, !tbaa !3
  call void @llvm.lifetime.start.p0(i64 8, ptr %6) #7
  %8 = load ptr, ptr %4, align 8, !tbaa !3
  %9 = call i32 @system(ptr noundef %8)
  %10 = icmp eq i32 %9, -1
  br i1 %10, label %11, label %15

11:                                               ; preds = %2
  %12 = load ptr, ptr @stdout, align 8, !tbaa !8
  %13 = load ptr, ptr %4, align 8, !tbaa !3
  %14 = call i32 (ptr, ptr, ...) @fprintf(ptr noundef %12, ptr noundef @.str.12, ptr noundef %13) #7
  store i32 0, ptr %3, align 4
  store i32 1, ptr %7, align 4
  br label %26

15:                                               ; preds = %2
  %16 = load ptr, ptr %5, align 8, !tbaa !3
  %17 = call noalias ptr @fopen(ptr noundef %16, ptr noundef @.str.13)
  store ptr %17, ptr %6, align 8, !tbaa !8
  %18 = icmp eq ptr %17, null
  br i1 %18, label %19, label %23

19:                                               ; preds = %15
  %20 = load ptr, ptr @stdout, align 8, !tbaa !8
  %21 = load ptr, ptr %5, align 8, !tbaa !3
  %22 = call i32 (ptr, ptr, ...) @fprintf(ptr noundef %20, ptr noundef @.str.14, ptr noundef %21) #7
  store i32 0, ptr %3, align 4
  store i32 1, ptr %7, align 4
  br label %26

23:                                               ; preds = %15
  %24 = load ptr, ptr %6, align 8, !tbaa !8
  %25 = call i32 @fclose(ptr noundef %24)
  store i32 1, ptr %3, align 4
  store i32 1, ptr %7, align 4
  br label %26

26:                                               ; preds = %23, %19, %11
  call void @llvm.lifetime.end.p0(i64 8, ptr %6) #7
  %27 = load i32, ptr %3, align 4
  ret i32 %27
}

; Function Attrs: nounwind uwtable
define ptr @Wln_GetYosysName() #0 {
  %1 = alloca ptr, align 8
  %2 = alloca ptr, align 8
  %3 = alloca ptr, align 8
  call void @llvm.lifetime.start.p0(i64 8, ptr %1) #7
  store ptr null, ptr %1, align 8, !tbaa !3
  call void @llvm.lifetime.start.p0(i64 8, ptr %2) #7
  store ptr @.str.8, ptr %2, align 8, !tbaa !3
  call void @llvm.lifetime.start.p0(i64 8, ptr %3) #7
  store ptr @.str.9, ptr %3, align 8, !tbaa !3
  %4 = call ptr @Abc_FrameReadFlag(ptr noundef @.str.10)
  %5 = icmp ne ptr %4, null
  br i1 %5, label %6, label %8

6:                                                ; preds = %0
  %7 = call ptr @Abc_FrameReadFlag(ptr noundef @.str.10)
  store ptr %7, ptr %2, align 8, !tbaa !3
  br label %8

8:                                                ; preds = %6, %0
  %9 = call ptr @Abc_FrameReadFlag(ptr noundef @.str.11)
  %10 = icmp ne ptr %9, null
  br i1 %10, label %11, label %13

11:                                               ; preds = %8
  %12 = call ptr @Abc_FrameReadFlag(ptr noundef @.str.11)
  store ptr %12, ptr %3, align 8, !tbaa !3
  br label %13

13:                                               ; preds = %11, %8
  %14 = load ptr, ptr %3, align 8, !tbaa !3
  store ptr %14, ptr %1, align 8, !tbaa !3
  %15 = load ptr, ptr %1, align 8, !tbaa !3
  call void @llvm.lifetime.end.p0(i64 8, ptr %3) #7
  call void @llvm.lifetime.end.p0(i64 8, ptr %2) #7
  call void @llvm.lifetime.end.p0(i64 8, ptr %1) #7
  ret ptr %15
}

; Function Attrs: nounwind uwtable
define ptr @Wln_ReadSystemVerilog(ptr noundef %0, ptr noundef %1, ptr noundef %2, i32 noundef %3, i32 noundef %4) #0 {
  %6 = alloca ptr, align 8
  %7 = alloca ptr, align 8
  %8 = alloca ptr, align 8
  %9 = alloca ptr, align 8
  %10 = alloca i32, align 4
  %11 = alloca i32, align 4
  %12 = alloca ptr, align 8
  %13 = alloca [1000 x i8], align 16
  %14 = alloca ptr, align 8
  %15 = alloca i32, align 4
  %16 = alloca i32, align 4
  store ptr %0, ptr %7, align 8, !tbaa !3
  store ptr %1, ptr %8, align 8, !tbaa !3
  store ptr %2, ptr %9, align 8, !tbaa !3
  store i32 %3, ptr %10, align 4, !tbaa !13
  store i32 %4, ptr %11, align 4, !tbaa !13
  call void @llvm.lifetime.start.p0(i64 8, ptr %12) #7
  store ptr null, ptr %12, align 8, !tbaa !15
  call void @llvm.lifetime.start.p0(i64 1000, ptr %13) #7
  call void @llvm.lifetime.start.p0(i64 8, ptr %14) #7
  store ptr @.str.15, ptr %14, align 8, !tbaa !3
  call void @llvm.lifetime.start.p0(i64 4, ptr %15) #7
  %17 = load ptr, ptr %7, align 8, !tbaa !3
  %18 = call ptr @strstr(ptr noundef %17, ptr noundef @.str.16) #9
  %19 = icmp ne ptr %18, null
  %20 = zext i1 %19 to i32
  store i32 %20, ptr %15, align 4, !tbaa !13
  %21 = load ptr, ptr %7, align 8, !tbaa !3
  %22 = call ptr @strstr(ptr noundef %21, ptr noundef @.str.17) #9
  %23 = icmp ne ptr %22, null
  br i1 %23, label %24, label %28

24:                                               ; preds = %5
  %25 = load ptr, ptr %7, align 8, !tbaa !3
  %26 = load ptr, ptr %7, align 8, !tbaa !3
  %27 = call ptr @Rtl_LibReadFile(ptr noundef %25, ptr noundef %26)
  store ptr %27, ptr %6, align 8
  store i32 1, ptr %16, align 4
  br label %85

28:                                               ; preds = %5
  %29 = getelementptr inbounds [1000 x i8], ptr %13, i64 0, i64 0
  %30 = call ptr @Wln_GetYosysName()
  %31 = load ptr, ptr %9, align 8, !tbaa !3
  %32 = icmp ne ptr %31, null
  %33 = select i1 %32, ptr @.str.19, ptr @.str.20
  %34 = load ptr, ptr %9, align 8, !tbaa !3
  %35 = icmp ne ptr %34, null
  br i1 %35, label %36, label %38

36:                                               ; preds = %28
  %37 = load ptr, ptr %9, align 8, !tbaa !3
  br label %39

38:                                               ; preds = %28
  br label %39

39:                                               ; preds = %38, %36
  %40 = phi ptr [ %37, %36 ], [ @.str.20, %38 ]
  %41 = load i32, ptr %15, align 4, !tbaa !13
  %42 = icmp ne i32 %41, 0
  %43 = select i1 %42, ptr @.str.21, ptr @.str.20
  %44 = load ptr, ptr %7, align 8, !tbaa !3
  %45 = load ptr, ptr %8, align 8, !tbaa !3
  %46 = icmp ne ptr %45, null
  %47 = select i1 %46, ptr @.str.22, ptr @.str.20
  %48 = load ptr, ptr %8, align 8, !tbaa !3
  %49 = icmp ne ptr %48, null
  br i1 %49, label %50, label %52

50:                                               ; preds = %39
  %51 = load ptr, ptr %8, align 8, !tbaa !3
  br label %53

52:                                               ; preds = %39
  br label %53

53:                                               ; preds = %52, %50
  %54 = phi ptr [ %51, %50 ], [ @.str.20, %52 ]
  %55 = load i32, ptr %10, align 4, !tbaa !13
  %56 = icmp ne i32 %55, 0
  %57 = select i1 %56, ptr @.str.23, ptr @.str.20
  %58 = load ptr, ptr %14, align 8, !tbaa !3
  %59 = call i32 (ptr, ptr, ...) @sprintf(ptr noundef %29, ptr noundef @.str.18, ptr noundef %30, ptr noundef %33, ptr noundef %40, ptr noundef %43, ptr noundef %44, ptr noundef %47, ptr noundef %54, ptr noundef %57, ptr noundef %58) #7
  %60 = load i32, ptr %11, align 4, !tbaa !13
  %61 = icmp ne i32 %60, 0
  br i1 %61, label %62, label %65

62:                                               ; preds = %53
  %63 = getelementptr inbounds [1000 x i8], ptr %13, i64 0, i64 0
  %64 = call i32 (ptr, ...) @printf(ptr noundef @.str.24, ptr noundef %63)
  br label %65

65:                                               ; preds = %62, %53
  %66 = getelementptr inbounds [1000 x i8], ptr %13, i64 0, i64 0
  %67 = load ptr, ptr %14, align 8, !tbaa !3
  %68 = call i32 @Wln_ConvertToRtl(ptr noundef %66, ptr noundef %67)
  %69 = icmp ne i32 %68, 0
  br i1 %69, label %71, label %70

70:                                               ; preds = %65
  store ptr null, ptr %6, align 8
  store i32 1, ptr %16, align 4
  br label %85

71:                                               ; preds = %65
  %72 = load ptr, ptr %14, align 8, !tbaa !3
  %73 = load ptr, ptr %7, align 8, !tbaa !3
  %74 = call ptr @Rtl_LibReadFile(ptr noundef %72, ptr noundef %73)
  store ptr %74, ptr %12, align 8, !tbaa !15
  %75 = load ptr, ptr %12, align 8, !tbaa !15
  %76 = icmp eq ptr %75, null
  br i1 %76, label %77, label %80

77:                                               ; preds = %71
  %78 = load ptr, ptr %14, align 8, !tbaa !3
  %79 = call i32 (ptr, ...) @printf(ptr noundef @.str.25, ptr noundef %78)
  store ptr null, ptr %6, align 8
  store i32 1, ptr %16, align 4
  br label %85

80:                                               ; preds = %71
  %81 = load ptr, ptr %14, align 8, !tbaa !3
  call void @Rtl_NtkCleanFile(ptr noundef %81)
  %82 = load ptr, ptr %14, align 8, !tbaa !3
  %83 = call i32 @unlink(ptr noundef %82) #7
  %84 = load ptr, ptr %12, align 8, !tbaa !15
  store ptr %84, ptr %6, align 8
  store i32 1, ptr %16, align 4
  br label %85

85:                                               ; preds = %80, %77, %70, %24
  call void @llvm.lifetime.end.p0(i64 4, ptr %15) #7
  call void @llvm.lifetime.end.p0(i64 8, ptr %14) #7
  call void @llvm.lifetime.end.p0(i64 1000, ptr %13) #7
  call void @llvm.lifetime.end.p0(i64 8, ptr %12) #7
  %86 = load ptr, ptr %6, align 8
  ret ptr %86
}