; Function Attrs: nounwind uwtable
define ptr @Wln_ReadSystemVerilog(ptr noundef %0, ptr noundef %1, ptr noundef %2, i32 noundef %3, i32 noundef %4) local_unnamed_addr #0 {
  %6 = alloca [1000 x i8], align 16
  call void @llvm.lifetime.start.p0(i64 1000, ptr nonnull %6) #13
  %7 = tail call ptr @strstr(ptr noundef nonnull dereferenceable(1) %0, ptr noundef nonnull dereferenceable(1) @.str.17) #12
  %.not24 = icmp eq ptr %7, null
  br i1 %.not24, label %10, label %8

8:                                                ; preds = %5
  %9 = tail call ptr @Rtl_LibReadFile(ptr noundef nonnull %0, ptr noundef nonnull %0) #13
  br label %Wln_ConvertToRtl.exit.thread

10:                                               ; preds = %5
  %11 = tail call ptr @strstr(ptr noundef nonnull dereferenceable(1) %0, ptr noundef nonnull dereferenceable(1) @.str.16) #12
  %.not = icmp eq ptr %11, null
  %12 = tail call ptr @Abc_FrameReadFlag(ptr noundef nonnull @.str.10) #13
  %.not.i = icmp eq ptr %12, null
  br i1 %.not.i, label %15, label %13

13:                                               ; preds = %10
  %14 = tail call ptr @Abc_FrameReadFlag(ptr noundef nonnull @.str.10) #13
  br label %15

15:                                               ; preds = %13, %10
  %16 = tail call ptr @Abc_FrameReadFlag(ptr noundef nonnull @.str.11) #13
  %.not2.i = icmp eq ptr %16, null
  br i1 %.not2.i, label %Wln_GetYosysName.exit, label %17

17:                                               ; preds = %15
  %18 = tail call ptr @Abc_FrameReadFlag(ptr noundef nonnull @.str.11) #13
  br label %Wln_GetYosysName.exit

Wln_GetYosysName.exit:                            ; preds = %15, %17
  %.0.i = phi ptr [ %18, %17 ], [ @.str.9, %15 ]
  %.not25 = icmp eq ptr %2, null
  %19 = select i1 %.not25, ptr @.str.20, ptr @.str.19
  %20 = select i1 %.not25, ptr @.str.20, ptr %2
  %21 = select i1 %.not, ptr @.str.20, ptr @.str.21
  %.not26 = icmp eq ptr %1, null
  %22 = select i1 %.not26, ptr @.str.20, ptr @.str.22
  %23 = select i1 %.not26, ptr @.str.20, ptr %1
  %.not27 = icmp eq i32 %3, 0
  %24 = select i1 %.not27, ptr @.str.20, ptr @.str.23
  %25 = call i32 (ptr, ptr, ...) @sprintf(ptr noundef nonnull dereferenceable(1) %6, ptr noundef nonnull dereferenceable(1) @.str.18, ptr noundef %.0.i, ptr noundef nonnull %19, ptr noundef nonnull %20, ptr noundef nonnull %21, ptr noundef nonnull %0, ptr noundef nonnull %22, ptr noundef nonnull %23, ptr noundef nonnull %24, ptr noundef nonnull @.str.15) #13
  %.not28 = icmp eq i32 %4, 0
  br i1 %.not28, label %27, label %26

26:                                               ; preds = %Wln_GetYosysName.exit
  %puts = call i32 @puts(ptr nonnull dereferenceable(1) %6)
  br label %27

27:                                               ; preds = %26, %Wln_GetYosysName.exit
  %28 = call i32 @system(ptr noundef nonnull %6) #13
  %29 = icmp eq i32 %28, -1
  br i1 %29, label %30, label %33

30:                                               ; preds = %27
  %31 = load ptr, ptr @stdout, align 8, !tbaa !6
  %32 = call i32 (ptr, ptr, ...) @fprintf(ptr noundef %31, ptr noundef nonnull @.str.12, ptr noundef nonnull %6) #13
  br label %Wln_ConvertToRtl.exit.thread

33:                                               ; preds = %27
  %34 = tail call noalias ptr @fopen(ptr noundef nonnull @.str.15, ptr noundef nonnull @.str.13)
  %35 = icmp eq ptr %34, null
  br i1 %35, label %36, label %39

36:                                               ; preds = %33
  %37 = load ptr, ptr @stdout, align 8, !tbaa !6
  %38 = tail call i32 (ptr, ptr, ...) @fprintf(ptr noundef %37, ptr noundef nonnull @.str.14, ptr noundef nonnull @.str.15) #13
  br label %Wln_ConvertToRtl.exit.thread

39:                                               ; preds = %33
  %40 = tail call i32 @fclose(ptr noundef nonnull %34)
  %41 = tail call ptr @Rtl_LibReadFile(ptr noundef nonnull @.str.15, ptr noundef nonnull %0) #13
  %42 = icmp eq ptr %41, null
  br i1 %42, label %43, label %45

43:                                               ; preds = %39
  %44 = tail call i32 (ptr, ...) @printf(ptr noundef nonnull dereferenceable(1) @.str.25, ptr noundef nonnull @.str.15)
  br label %Wln_ConvertToRtl.exit.thread

45:                                               ; preds = %39
  tail call void @Rtl_NtkCleanFile(ptr noundef nonnull @.str.15)
  %46 = tail call i32 @unlink(ptr noundef nonnull @.str.15) #13
  br label %Wln_ConvertToRtl.exit.thread

Wln_ConvertToRtl.exit.thread:                     ; preds = %36, %30, %45, %43, %8
  %.0 = phi ptr [ %9, %8 ], [ null, %43 ], [ %41, %45 ], [ null, %30 ], [ null, %36 ]
  call void @llvm.lifetime.end.p0(i64 1000, ptr nonnull %6) #13
  ret ptr %.0
}